target datalayout = "e-m:e-p270:32:32-p271:32:32-p272:64:64-i64:64-i128:128-f80:128-n8:16:32:64-S128"
target triple = "x86_64-pc-linux-gnu"

%struct.nstime_t = type { i64, i32 }
%struct._packet_info = type { ptr, ptr, i32, i32, %struct.nstime_t, %struct.nstime_t, %struct.nstime_t, i8, ptr, ptr, ptr, ptr, %struct._address, %struct._address, %struct._address, %struct._address, %struct._address, %struct._address, i32, ptr, i8, [3 x i8], %struct.anon, i32, i32, i32, i32, ptr, i8, ptr, ptr, i16, i16, i32, i32, i16, i32, i32, ptr, ptr, ptr, i8, i8, i16, i16, i16, i32, i16, i16, ptr, ptr, ptr, ptr, ptr, i32, i32 }
%struct._address = type { i32, i32, ptr, ptr }
%struct.anon = type { i8, [3 x i8] }

@ett_gbcs_message_asn1 = internal global i32 0, align 4
@ett_gbcs_message_dlms = internal global i32 0, align 4
@gbcs_gbz_handle = internal global ptr null, align 8
@gbcs_ber_handle = internal global ptr null, align 8
@.str.584 = private unnamed_addr constant [10 x i8] c"GBCS DLMS\00", align 1
@.str.585 = private unnamed_addr constant [11 x i8] c"GBCS ASN.1\00", align 1

; Function Attrs: null_pointer_is_valid sspstrong uwtable
define internal void @dissect_gbcs_message_payload(ptr noundef %0, ptr noundef %1, ptr noundef %2, ptr noundef %3, i32 noundef %4, i8 noundef zeroext %5) #0 {
  %7 = alloca ptr, align 8
  %8 = alloca ptr, align 8
  %9 = alloca ptr, align 8
  %10 = alloca ptr, align 8
  %11 = alloca i32, align 4
  %12 = alloca i8, align 1
  %13 = alloca ptr, align 8
  %14 = alloca ptr, align 8
  %15 = alloca ptr, align 8
  %16 = alloca ptr, align 8
  %17 = alloca ptr, align 8
  store ptr %0, ptr %7, align 8
  store ptr %1, ptr %8, align 8
  store ptr %2, ptr %9, align 8
  store ptr %3, ptr %10, align 8
  store i32 %4, ptr %11, align 4
  store i8 %5, ptr %12, align 1
  call void @llvm.lifetime.start.p0(i64 8, ptr %13) #5
  %18 = load ptr, ptr %7, align 8
  %19 = load ptr, ptr %10, align 8
  %20 = load i32, ptr %19, align 4
  %21 = load i32, ptr %11, align 4
  %22 = call ptr @tvb_new_subset_length(ptr noundef %18, i32 noundef %20, i32 noundef %21)
  store ptr %22, ptr %13, align 8
  %23 = load ptr, ptr @gbcs_gbz_handle, align 8
  %24 = icmp ne ptr %23, null
  br i1 %24, label %25, label %36

25:                                               ; preds = %6
  %26 = load ptr, ptr %13, align 8
  %27 = call zeroext i16 @tvb_get_ntohs(ptr noundef %26, i32 noundef 0)
  %28 = zext i16 %27 to i32
  %29 = icmp eq i32 %28, 265
  br i1 %29, label %30, label %36

30:                                               ; preds = %25
  %31 = load ptr, ptr @gbcs_gbz_handle, align 8
  %32 = load ptr, ptr %13, align 8
  %33 = load ptr, ptr %8, align 8
  %34 = load ptr, ptr %9, align 8
  %35 = call i32 @call_dissector_with_data(ptr noundef %31, ptr noundef %32, ptr noundef %33, ptr noundef %34, ptr noundef %12)
  br label %95

36:                                               ; preds = %25, %6
  %37 = load ptr, ptr %13, align 8
  %38 = call zeroext i8 @tvb_get_uint8(ptr noundef %37, i32 noundef 0)
  %39 = zext i8 %38 to i32
  %40 = icmp eq i32 %39, 217
  br i1 %40, label %51, label %41

41:                                               ; preds = %36
  %42 = load ptr, ptr %13, align 8
  %43 = call zeroext i8 @tvb_get_uint8(ptr noundef %42, i32 noundef 0)
  %44 = zext i8 %43 to i32
  %45 = icmp eq i32 %44, 218
  br i1 %45, label %51, label %46

46:                                               ; preds = %41
  %47 = load ptr, ptr %13, align 8
  %48 = call zeroext i8 @tvb_get_uint8(ptr noundef %47, i32 noundef 0)
  %49 = zext i8 %48 to i32
  %50 = icmp eq i32 %49, 15
  br i1 %50, label %51, label %61

51:                                               ; preds = %46, %41, %36
  call void @llvm.lifetime.start.p0(i64 8, ptr %14) #5
  %52 = load ptr, ptr %9, align 8
  %53 = load ptr, ptr %13, align 8
  %54 = load i32, ptr %11, align 4
  %55 = load i32, ptr @ett_gbcs_message_dlms, align 4
  %56 = call ptr @proto_tree_add_subtree(ptr noundef %52, ptr noundef %53, i32 noundef 0, i32 noundef %54, i32 noundef %55, ptr noundef null, ptr noundef @.str.584)
  store ptr %56, ptr %14, align 8
  %57 = load ptr, ptr %13, align 8
  %58 = load ptr, ptr %8, align 8
  %59 = load ptr, ptr %14, align 8
  %60 = call i32 @call_data_dissector(ptr noundef %57, ptr noundef %58, ptr noundef %59)
  call void @llvm.lifetime.end.p0(i64 8, ptr %14) #5
  br label %94

61:                                               ; preds = %46
  call void @llvm.lifetime.start.p0(i64 8, ptr %15) #5
  call void @llvm.lifetime.start.p0(i64 8, ptr %16) #5
  call void @llvm.lifetime.start.p0(i64 8, ptr %17) #5
  %62 = load ptr, ptr %8, align 8
  %63 = getelementptr inbounds nuw %struct._packet_info, ptr %62, i32 0, i32 1
  %64 = load ptr, ptr %63, align 8
  %65 = call ptr @col_get_text(ptr noundef %64, i32 noundef 25)
  store ptr %65, ptr %15, align 8
  %66 = load ptr, ptr %15, align 8
  %67 = icmp ne ptr %66, null
  br i1 %67, label %68, label %74

68:                                               ; preds = %61
  %69 = load ptr, ptr %8, align 8
  %70 = getelementptr inbounds nuw %struct._packet_info, ptr %69, i32 0, i32 51
  %71 = load ptr, ptr %70, align 8
  %72 = load ptr, ptr %15, align 8
  %73 = call noalias ptr @wmem_strbuf_new(ptr noundef %71, ptr noundef %72)
  store ptr %73, ptr %16, align 8
  br label %74

74:                                               ; preds = %68, %61
  %75 = load ptr, ptr %9, align 8
  %76 = load ptr, ptr %13, align 8
  %77 = load i32, ptr %11, align 4
  %78 = load i32, ptr @ett_gbcs_message_asn1, align 4
  %79 = call ptr @proto_tree_add_subtree(ptr noundef %75, ptr noundef %76, i32 noundef 0, i32 noundef %77, i32 noundef %78, ptr noundef null, ptr noundef @.str.585)
  store ptr %79, ptr %17, align 8
  %80 = load ptr, ptr @gbcs_ber_handle, align 8
  %81 = load ptr, ptr %13, align 8
  %82 = load ptr, ptr %8, align 8
  %83 = load ptr, ptr %17, align 8
  %84 = call i32 @call_dissector(ptr noundef %80, ptr noundef %81, ptr noundef %82, ptr noundef %83)
  %85 = load ptr, ptr %15, align 8
  %86 = icmp ne ptr %85, null
  br i1 %86, label %87, label %93

87:                                               ; preds = %74
  %88 = load ptr, ptr %8, align 8
  %89 = getelementptr inbounds nuw %struct._packet_info, ptr %88, i32 0, i32 1
  %90 = load ptr, ptr %89, align 8
  %91 = load ptr, ptr %16, align 8
  %92 = call ptr @wmem_strbuf_get_str(ptr noundef %91)
  call void @col_add_str(ptr noundef %90, i32 noundef 25, ptr noundef %92)
  br label %93

93:                                               ; preds = %87, %74
  call void @llvm.lifetime.end.p0(i64 8, ptr %17) #5
  call void @llvm.lifetime.end.p0(i64 8, ptr %16) #5
  call void @llvm.lifetime.end.p0(i64 8, ptr %15) #5
  br label %94

94:                                               ; preds = %93, %51
  br label %95

95:                                               ; preds = %94, %30
  %96 = load i32, ptr %11, align 4
  %97 = load ptr, ptr %10, align 8
  %98 = load i32, ptr %97, align 4
  %99 = add i32 %98, %96
  store i32 %99, ptr %97, align 4
  call void @llvm.lifetime.end.p0(i64 8, ptr %13) #5
  ret void
}