; Function Attrs: null_pointer_is_valid sspstrong uwtable
define internal fastcc void @dissect_gbcs_message_payload(ptr noundef %0, ptr noundef %1, ptr noundef %2, ptr noundef captures(none) %3, i32 noundef %4, i8 noundef zeroext %5) unnamed_addr #0 {
  %7 = alloca i8, align 1
  store i8 %5, ptr %7, align 1
  %8 = load i32, ptr %3, align 4
  %9 = tail call ptr @tvb_new_subset_length(ptr noundef %0, i32 noundef %8, i32 noundef %4)
  %10 = load ptr, ptr @gbcs_gbz_handle, align 8
  %.not = icmp eq ptr %10, null
  br i1 %.not, label %17, label %11

11:                                               ; preds = %6
  %12 = tail call zeroext i16 @tvb_get_ntohs(ptr noundef %9, i32 noundef 0)
  %13 = icmp eq i16 %12, 265
  br i1 %13, label %14, label %17

14:                                               ; preds = %11
  %15 = load ptr, ptr @gbcs_gbz_handle, align 8
  %16 = call i32 @call_dissector_with_data(ptr noundef %15, ptr noundef %9, ptr noundef %1, ptr noundef %2, ptr noundef nonnull %7)
  br label %46

17:                                               ; preds = %11, %6
  %18 = tail call zeroext i8 @tvb_get_uint8(ptr noundef %9, i32 noundef 0)
  %19 = icmp eq i8 %18, -39
  br i1 %19, label %26, label %20

20:                                               ; preds = %17
  %21 = tail call zeroext i8 @tvb_get_uint8(ptr noundef %9, i32 noundef 0)
  %22 = icmp eq i8 %21, -38
  br i1 %22, label %26, label %23

23:                                               ; preds = %20
  %24 = tail call zeroext i8 @tvb_get_uint8(ptr noundef %9, i32 noundef 0)
  %25 = icmp eq i8 %24, 15
  br i1 %25, label %26, label %30

26:                                               ; preds = %23, %20, %17
  %27 = load i32, ptr @ett_gbcs_message_dlms, align 4
  %28 = tail call ptr @proto_tree_add_subtree(ptr noundef %2, ptr noundef %9, i32 noundef 0, i32 noundef %4, i32 noundef %27, ptr noundef null, ptr noundef nonnull @.str.584)
  %29 = tail call i32 @call_data_dissector(ptr noundef %9, ptr noundef %1, ptr noundef %28)
  br label %46

30:                                               ; preds = %23
  %31 = getelementptr inbounds nuw i8, ptr %1, i64 8
  %32 = load ptr, ptr %31, align 8
  %33 = tail call ptr @col_get_text(ptr noundef %32, i32 noundef 25)
  %.not31 = icmp eq ptr %33, null
  br i1 %.not31, label %38, label %34

34:                                               ; preds = %30
  %35 = getelementptr inbounds nuw i8, ptr %1, i64 408
  %36 = load ptr, ptr %35, align 8
  %37 = tail call noalias ptr @wmem_strbuf_new(ptr noundef %36, ptr noundef nonnull %33)
  br label %38

38:                                               ; preds = %34, %30
  %.0 = phi ptr [ %37, %34 ], [ undef, %30 ]
  %39 = load i32, ptr @ett_gbcs_message_asn1, align 4
  %40 = tail call ptr @proto_tree_add_subtree(ptr noundef %2, ptr noundef %9, i32 noundef 0, i32 noundef %4, i32 noundef %39, ptr noundef null, ptr noundef nonnull @.str.585)
  %41 = load ptr, ptr @gbcs_ber_handle, align 8
  %42 = tail call i32 @call_dissector(ptr noundef %41, ptr noundef %9, ptr noundef %1, ptr noundef %40)
  br i1 %.not31, label %46, label %43

43:                                               ; preds = %38
  %44 = load ptr, ptr %31, align 8
  %45 = tail call ptr @wmem_strbuf_get_str(ptr noundef %.0)
  tail call void @col_add_str(ptr noundef %44, i32 noundef 25, ptr noundef %45)
  br label %46

46:                                               ; preds = %38, %43, %26, %14
  %47 = load i32, ptr %3, align 4
  %48 = add i32 %47, %4
  store i32 %48, ptr %3, align 4
  ret void
}